; Function Attrs: nounwind uwtable
define dso_local range(i32 -403, 1) i32 @onig_reg_init(ptr noundef writeonly captures(none) initializes((0, 456)) %0, i32 noundef %1, i32 noundef %2, ptr noundef %3, ptr noundef %4) local_unnamed_addr #6 {
  tail call void @llvm.memset.p0.i64(ptr noundef nonnull align 8 dereferenceable(456) %0, i8 0, i64 456, i1 false)
  %.b = load i1, ptr @onig_inited, align 4
  br i1 %.b, label %9, label %.lr.ph.i

.lr.ph.i:                                         ; preds = %5
  %6 = tail call i32 @onigenc_init() #22
  store i1 true, ptr @onig_inited, align 4
  %7 = tail call i32 @onig_initialize_encoding(ptr noundef %3) #22
  %.not.i = icmp eq i32 %7, 0
  br i1 %.not.i, label %8, label %onig_initialize.exit

8:                                                ; preds = %.lr.ph.i
  tail call void @onig_warning(ptr noundef nonnull @.str) #22
  br label %9

9:                                                ; preds = %5, %8
  %10 = icmp eq ptr %3, null
  br i1 %10, label %onig_initialize.exit, label %11

11:                                               ; preds = %9
  %12 = and i32 %1, 384
  %13 = icmp eq i32 %12, 384
  br i1 %13, label %onig_initialize.exit, label %14

14:                                               ; preds = %11
  %15 = and i32 %1, 64
  %.not31 = icmp eq i32 %15, 0
  %16 = getelementptr inbounds nuw i8, ptr %4, i64 12
  %17 = load i32, ptr %16, align 4, !tbaa !167
  %18 = or i32 %17, %1
  %19 = and i32 %18, -9
  %.028 = select i1 %.not31, i32 %18, i32 %19
  %20 = and i32 %.028, 32768
  %.not32 = icmp eq i32 %20, 0
  %21 = and i32 %2, -1074790402
  %22 = or disjoint i32 %21, 1
  %.029 = select i1 %.not32, i32 %2, i32 %22
  %23 = getelementptr inbounds nuw i8, ptr %0, i64 96
  store ptr %3, ptr %23, align 8, !tbaa !13
  %24 = getelementptr inbounds nuw i8, ptr %0, i64 104
  store i32 %.028, ptr %24, align 8, !tbaa !105
  %25 = getelementptr inbounds nuw i8, ptr %0, i64 112
  store ptr %4, ptr %25, align 8, !tbaa !168
  %26 = getelementptr inbounds nuw i8, ptr %0, i64 136
  store i32 0, ptr %26, align 8, !tbaa !77
  %27 = getelementptr inbounds nuw i8, ptr %0, i64 160
  store ptr null, ptr %27, align 8, !tbaa !25
  %28 = getelementptr inbounds nuw i8, ptr %0, i64 448
  store ptr null, ptr %28, align 8, !tbaa !8
  store ptr null, ptr %0, align 8, !tbaa !17
  %29 = getelementptr inbounds nuw i8, ptr %0, i64 16
  %30 = getelementptr inbounds nuw i8, ptr %0, i64 128
  store ptr null, ptr %30, align 8, !tbaa !169
  %31 = getelementptr inbounds nuw i8, ptr %0, i64 120
  tail call void @llvm.memset.p0.i64(ptr noundef nonnull align 8 dereferenceable(16) %29, i8 0, i64 16, i1 false)
  store i32 %.029, ptr %31, align 8, !tbaa !50
  br label %onig_initialize.exit

onig_initialize.exit:                             ; preds = %.lr.ph.i, %11, %9, %14
  %.0 = phi i32 [ 0, %14 ], [ -21, %9 ], [ -403, %11 ], [ -23, %.lr.ph.i ]
  ret i32 %.0
}